; Function Attrs: mustprogress uwtable
define internal fastcc void @_ZN8facebook5velox12_GLOBAL__N_113writeIOTimingERKNS0_13CpuWallTimingE(ptr nocapture noundef nonnull readonly align 8 dereferenceable(24) %delta) unnamed_addr #0 personality ptr @__gxx_personality_v0 {
entry:
  %ref.tmp = alloca %"class.std::__cxx11::basic_string", align 8
  %ref.tmp1 = alloca %"class.std::allocator", align 1
  %ref.tmp2 = alloca %"struct.facebook::velox::RuntimeCounter", align 8
  %ref.tmp6 = alloca %"class.std::__cxx11::basic_string", align 8
  %ref.tmp7 = alloca %"class.std::allocator", align 1
  %ref.tmp10 = alloca %"struct.facebook::velox::RuntimeCounter", align 8
  call void @_ZNSaIcEC1Ev(ptr noundef nonnull align 1 dereferenceable(1) %ref.tmp1) #21
  %call.i6 = invoke noundef ptr @_ZNSt7__cxx1112basic_stringIcSt11char_traitsIcESaIcEE13_M_local_dataEv(ptr noundef nonnull align 8 dereferenceable(32) %ref.tmp)
          to label %call.i.noexc unwind label %lpad

call.i.noexc:                                     ; preds = %entry
  invoke void @_ZNSt7__cxx1112basic_stringIcSt11char_traitsIcESaIcEE12_Alloc_hiderC1EPcRKS3_(ptr noundef nonnull align 8 dereferenceable(8) %ref.tmp, ptr noundef %call.i6, ptr noundef nonnull align 1 dereferenceable(1) %ref.tmp1)
          to label %.noexc unwind label %lpad

.noexc:                                           ; preds = %call.i.noexc
  invoke void @_ZNSt7__cxx1112basic_stringIcSt11char_traitsIcESaIcEE12_M_constructIPKcEEvT_S8_St20forward_iterator_tag(ptr noundef nonnull align 8 dereferenceable(32) %ref.tmp, ptr noundef nonnull @.str.7, ptr noundef nonnull getelementptr inbounds ([24 x i8], ptr @.str.7, i64 0, i64 23))
          to label %invoke.cont unwind label %lpad.i

lpad.i:                                           ; preds = %.noexc
  %0 = landingpad { ptr, i32 }
          cleanup
  call void @_ZNSaIcED2Ev(ptr noundef nonnull align 1 dereferenceable(1) %ref.tmp) #21
  br label %eh.resume

invoke.cont:                                      ; preds = %.noexc
  %wallNanos = getelementptr inbounds i8, ptr %delta, i64 8
  %1 = load i64, ptr %wallNanos, align 8
  store i64 %1, ptr %ref.tmp2, align 8
  %unit.i = getelementptr inbounds i8, ptr %ref.tmp2, i64 8
  store i32 1, ptr %unit.i, align 8
  invoke void @_ZN8facebook5velox25addThreadLocalRuntimeStatERKNSt7__cxx1112basic_stringIcSt11char_traitsIcESaIcEEERKNS0_14RuntimeCounterE(ptr noundef nonnull align 8 dereferenceable(32) %ref.tmp, ptr noundef nonnull align 8 dereferenceable(12) %ref.tmp2)
          to label %invoke.cont5 unwind label %lpad3

invoke.cont5:                                     ; preds = %invoke.cont
  call void @_ZNSt7__cxx1112basic_stringIcSt11char_traitsIcESaIcEED1Ev(ptr noundef nonnull align 8 dereferenceable(32) %ref.tmp) #21
  call void @_ZNSaIcED1Ev(ptr noundef nonnull align 1 dereferenceable(1) %ref.tmp1) #21
  call void @_ZNSaIcEC1Ev(ptr noundef nonnull align 1 dereferenceable(1) %ref.tmp7) #21
  %call.i11 = invoke noundef ptr @_ZNSt7__cxx1112basic_stringIcSt11char_traitsIcESaIcEE13_M_local_dataEv(ptr noundef nonnull align 8 dereferenceable(32) %ref.tmp6)
          to label %call.i.noexc10 unwind label %lpad8

call.i.noexc10:                                   ; preds = %invoke.cont5
  invoke void @_ZNSt7__cxx1112basic_stringIcSt11char_traitsIcESaIcEE12_Alloc_hiderC1EPcRKS3_(ptr noundef nonnull align 8 dereferenceable(8) %ref.tmp6, ptr noundef %call.i11, ptr noundef nonnull align 1 dereferenceable(1) %ref.tmp7)
          to label %.noexc12 unwind label %lpad8

.noexc12:                                         ; preds = %call.i.noexc10
  invoke void @_ZNSt7__cxx1112basic_stringIcSt11char_traitsIcESaIcEE12_M_constructIPKcEEvT_S8_St20forward_iterator_tag(ptr noundef nonnull align 8 dereferenceable(32) %ref.tmp6, ptr noundef nonnull @.str.8, ptr noundef nonnull getelementptr inbounds ([23 x i8], ptr @.str.8, i64 0, i64 22))
          to label %invoke.cont9 unwind label %lpad.i9

lpad.i9:                                          ; preds = %.noexc12
  %2 = landingpad { ptr, i32 }
          cleanup
  call void @_ZNSaIcED2Ev(ptr noundef nonnull align 1 dereferenceable(1) %ref.tmp6) #21
  br label %eh.resume

invoke.cont9:                                     ; preds = %.noexc12
  %cpuNanos = getelementptr inbounds i8, ptr %delta, i64 16
  %3 = load i64, ptr %cpuNanos, align 8
  store i64 %3, ptr %ref.tmp10, align 8
  %unit.i15 = getelementptr inbounds i8, ptr %ref.tmp10, i64 8
  store i32 1, ptr %unit.i15, align 8
  invoke void @_ZN8facebook5velox25addThreadLocalRuntimeStatERKNSt7__cxx1112basic_stringIcSt11char_traitsIcESaIcEEERKNS0_14RuntimeCounterE(ptr noundef nonnull align 8 dereferenceable(32) %ref.tmp6, ptr noundef nonnull align 8 dereferenceable(12) %ref.tmp10)
          to label %invoke.cont13 unwind label %lpad11

invoke.cont13:                                    ; preds = %invoke.cont9
  call void @_ZNSt7__cxx1112basic_stringIcSt11char_traitsIcESaIcEED1Ev(ptr noundef nonnull align 8 dereferenceable(32) %ref.tmp6) #21
  call void @_ZNSaIcED1Ev(ptr noundef nonnull align 1 dereferenceable(1) %ref.tmp7) #21
  ret void

lpad:                                             ; preds = %call.i.noexc, %entry
  %4 = landingpad { ptr, i32 }
          cleanup
  br label %eh.resume

lpad3:                                            ; preds = %invoke.cont
  %5 = landingpad { ptr, i32 }
          cleanup
  call void @_ZNSt7__cxx1112basic_stringIcSt11char_traitsIcESaIcEED1Ev(ptr noundef nonnull align 8 dereferenceable(32) %ref.tmp) #21
  br label %eh.resume

lpad8:                                            ; preds = %call.i.noexc10, %invoke.cont5
  %6 = landingpad { ptr, i32 }
          cleanup
  br label %eh.resume

lpad11:                                           ; preds = %invoke.cont9
  %7 = landingpad { ptr, i32 }
          cleanup
  call void @_ZNSt7__cxx1112basic_stringIcSt11char_traitsIcESaIcEED1Ev(ptr noundef nonnull align 8 dereferenceable(32) %ref.tmp6) #21
  br label %eh.resume

eh.resume:                                        ; preds = %lpad11, %lpad.i9, %lpad8, %lpad3, %lpad.i, %lpad
  %ref.tmp7.sink = phi ptr [ %ref.tmp1, %lpad ], [ %ref.tmp1, %lpad.i ], [ %ref.tmp1, %lpad3 ], [ %ref.tmp7, %lpad8 ], [ %ref.tmp7, %lpad.i9 ], [ %ref.tmp7, %lpad11 ]
  %.pn3.pn = phi { ptr, i32 } [ %4, %lpad ], [ %0, %lpad.i ], [ %5, %lpad3 ], [ %6, %lpad8 ], [ %2, %lpad.i9 ], [ %7, %lpad11 ]
  call void @_ZNSaIcED1Ev(ptr noundef nonnull align 1 dereferenceable(1) %ref.tmp7.sink) #21
  resume { ptr, i32 } %.pn3.pn
}